; ModuleID = '19/1231.c'
source_filename = "19/1231.c"
target datalayout = "e-m:e-p270:32:32-p271:32:32-p272:64:64-i64:64-f80:128-n8:16:32:64-S128"
target triple = "x86_64-pc-linux-gnu"

@.str = private unnamed_addr constant [3 x i8] c"%s\00", align 1
@.str.1 = private unnamed_addr constant [4 x i8] c" %s\00", align 1

; Function Attrs: noinline nounwind uwtable
define dso_local void @main() #0 {
  %1 = alloca [100 x i8*], align 16
  %2 = alloca i8*, align 8
  %3 = alloca i8*, align 8
  %4 = alloca i32, align 4
  %5 = alloca i32, align 4
  store i32 0, i32* %4, align 4
  br label %6

6:                                                ; preds = %20, %0
  %7 = call noalias i8* @calloc(i64 1, i64 100) #4
  %8 = load i32, i32* %4, align 4
  %9 = sext i32 %8 to i64
  %10 = getelementptr inbounds [100 x i8*], [100 x i8*]* %1, i64 0, i64 %9
  store i8* %7, i8** %10, align 8
  %11 = load i32, i32* %4, align 4
  %12 = sext i32 %11 to i64
  %13 = getelementptr inbounds [100 x i8*], [100 x i8*]* %1, i64 0, i64 %12
  %14 = load i8*, i8** %13, align 8
  %15 = call i32 (i8*, ...) @__isoc99_scanf(i8* getelementptr inbounds ([3 x i8], [3 x i8]* @.str, i64 0, i64 0), i8* %14)
  %16 = call i32 @getchar()
  %17 = icmp eq i32 %16, 10
  br i1 %17, label %18, label %19

18:                                               ; preds = %6
  br label %23

19:                                               ; preds = %6
  br label %20

20:                                               ; preds = %19
  %21 = load i32, i32* %4, align 4
  %22 = add nsw i32 %21, 1
  store i32 %22, i32* %4, align 4
  br label %6

23:                                               ; preds = %18
  %24 = load i32, i32* %4, align 4
  store i32 %24, i32* %5, align 4
  %25 = call noalias i8* @calloc(i64 1, i64 100) #4
  store i8* %25, i8** %2, align 8
  %26 = call noalias i8* @calloc(i64 1, i64 100) #4
  store i8* %26, i8** %3, align 8
  %27 = load i8*, i8** %2, align 8
  %28 = call i32 (i8*, ...) @__isoc99_scanf(i8* getelementptr inbounds ([3 x i8], [3 x i8]* @.str, i64 0, i64 0), i8* %27)
  %29 = load i8*, i8** %3, align 8
  %30 = call i32 (i8*, ...) @__isoc99_scanf(i8* getelementptr inbounds ([3 x i8], [3 x i8]* @.str, i64 0, i64 0), i8* %29)
  store i32 0, i32* %4, align 4
  br label %31

31:                                               ; preds = %51, %23
  %32 = load i32, i32* %4, align 4
  %33 = load i32, i32* %5, align 4
  %34 = icmp sle i32 %32, %33
  br i1 %34, label %35, label %54

35:                                               ; preds = %31
  %36 = load i32, i32* %4, align 4
  %37 = sext i32 %36 to i64
  %38 = getelementptr inbounds [100 x i8*], [100 x i8*]* %1, i64 0, i64 %37
  %39 = load i8*, i8** %38, align 8
  %40 = load i8*, i8** %2, align 8
  %41 = call i32 @strcmp(i8* %39, i8* %40) #5
  %42 = icmp eq i32 %41, 0
  br i1 %42, label %43, label %50

43:                                               ; preds = %35
  %44 = load i32, i32* %4, align 4
  %45 = sext i32 %44 to i64
  %46 = getelementptr inbounds [100 x i8*], [100 x i8*]* %1, i64 0, i64 %45
  %47 = load i8*, i8** %46, align 8
  %48 = load i8*, i8** %3, align 8
  %49 = call i8* @strcpy(i8* %47, i8* %48) #4
  br label %50

50:                                               ; preds = %43, %35
  br label %51

51:                                               ; preds = %50
  %52 = load i32, i32* %4, align 4
  %53 = add nsw i32 %52, 1
  store i32 %53, i32* %4, align 4
  br label %31

54:                                               ; preds = %31
  store i32 0, i32* %4, align 4
  br label %55

55:                                               ; preds = %75, %54
  %56 = load i32, i32* %4, align 4
  %57 = load i32, i32* %5, align 4
  %58 = icmp sle i32 %56, %57
  br i1 %58, label %59, label %78

59:                                               ; preds = %55
  %60 = load i32, i32* %4, align 4
  %61 = icmp eq i32 %60, 0
  br i1 %61, label %62, label %68

62:                                               ; preds = %59
  %63 = load i32, i32* %4, align 4
  %64 = sext i32 %63 to i64
  %65 = getelementptr inbounds [100 x i8*], [100 x i8*]* %1, i64 0, i64 %64
  %66 = load i8*, i8** %65, align 8
  %67 = call i32 (i8*, ...) @printf(i8* getelementptr inbounds ([3 x i8], [3 x i8]* @.str, i64 0, i64 0), i8* %66)
  br label %74

68:                                               ; preds = %59
  %69 = load i32, i32* %4, align 4
  %70 = sext i32 %69 to i64
  %71 = getelementptr inbounds [100 x i8*], [100 x i8*]* %1, i64 0, i64 %70
  %72 = load i8*, i8** %71, align 8
  %73 = call i32 (i8*, ...) @printf(i8* getelementptr inbounds ([4 x i8], [4 x i8]* @.str.1, i64 0, i64 0), i8* %72)
  br label %74

74:                                               ; preds = %68, %62
  br label %75

75:                                               ; preds = %74
  %76 = load i32, i32* %4, align 4
  %77 = add nsw i32 %76, 1
  store i32 %77, i32* %4, align 4
  br label %55

78:                                               ; preds = %55
  ret void
}

; Function Attrs: nounwind
declare dso_local noalias i8* @calloc(i64, i64) #1

declare dso_local i32 @__isoc99_scanf(i8*, ...) #2

declare dso_local i32 @getchar() #2

; Function Attrs: nounwind readonly
declare dso_local i32 @strcmp(i8*, i8*) #3

; Function Attrs: nounwind
declare dso_local i8* @strcpy(i8*, i8*) #1

declare dso_local i32 @printf(i8*, ...) #2


!llvm.module.flags = !{!0}
!llvm.ident = !{!1}

!0 = !{i32 1, !"wchar_size", i32 4}
!1 = !{!"clang version 10.0.0-4ubuntu1 "}
